target datalayout = "e-m:e-p270:32:32-p271:32:32-p272:64:64-i64:64-i128:128-f80:128-n8:16:32:64-S128"
target triple = "x86_64-pc-linux-gnu"

; Function Attrs: null_pointer_is_valid sspstrong uwtable
define i64 @get_CDR_long_long(ptr noundef %0, ptr noundef %1, i1 noundef zeroext %2, i32 noundef %3) #0 {
  %5 = alloca ptr, align 8
  %6 = alloca ptr, align 8
  %7 = alloca i8, align 1
  %8 = alloca i32, align 4
  %9 = alloca i64, align 8
  store ptr %0, ptr %5, align 8
  store ptr %1, ptr %6, align 8
  %10 = zext i1 %2 to i8
  store i8 %10, ptr %7, align 1
  store i32 %3, ptr %8, align 4
  call void @llvm.lifetime.start.p0(i64 8, ptr %9) #14
  br label %11

11:                                               ; preds = %18, %4
  %12 = load ptr, ptr %6, align 8
  %13 = load i32, ptr %12, align 4
  %14 = load i32, ptr %8, align 4
  %15 = add i32 %13, %14
  %16 = srem i32 %15, 8
  %17 = icmp ne i32 %16, 0
  br i1 %17, label %18, label %22

18:                                               ; preds = %11
  %19 = load ptr, ptr %6, align 8
  %20 = load i32, ptr %19, align 4
  %21 = add i32 %20, 1
  store i32 %21, ptr %19, align 4
  br label %11, !llvm.loop !23

22:                                               ; preds = %11
  %23 = load i8, ptr %7, align 1, !range !8, !noundef !9
  %24 = trunc i8 %23 to i1
  br i1 %24, label %25, label %30

25:                                               ; preds = %22
  %26 = load ptr, ptr %5, align 8
  %27 = load ptr, ptr %6, align 8
  %28 = load i32, ptr %27, align 4
  %29 = call i64 @tvb_get_ntoh64(ptr noundef %26, i32 noundef %28)
  br label %35

30:                                               ; preds = %22
  %31 = load ptr, ptr %5, align 8
  %32 = load ptr, ptr %6, align 8
  %33 = load i32, ptr %32, align 4
  %34 = call i64 @tvb_get_letoh64(ptr noundef %31, i32 noundef %33)
  br label %35

35:                                               ; preds = %30, %25
  %36 = phi i64 [ %29, %25 ], [ %34, %30 ]
  store i64 %36, ptr %9, align 8
  %37 = load ptr, ptr %6, align 8
  %38 = load i32, ptr %37, align 4
  %39 = add i32 %38, 8
  store i32 %39, ptr %37, align 4
  %40 = load i64, ptr %9, align 8
  call void @llvm.lifetime.end.p0(i64 8, ptr %9) #14
  ret i64 %40
}